; ModuleID = '27/1711.c'
source_filename = "27/1711.c"
target datalayout = "e-m:e-p270:32:32-p271:32:32-p272:64:64-i64:64-f80:128-n8:16:32:64-S128"
target triple = "x86_64-pc-linux-gnu"

@.str = private unnamed_addr constant [3 x i8] c"%d\00", align 1
@.str.1 = private unnamed_addr constant [12 x i8] c"%lf %lf %lf\00", align 1
@.str.2 = private unnamed_addr constant [33 x i8] c"x1=%.5lf+%.5lfi;x2=%.5lf-%.5lfi\0A\00", align 1
@.str.3 = private unnamed_addr constant [13 x i8] c"x1=x2=%.5lf\0A\00", align 1
@.str.4 = private unnamed_addr constant [19 x i8] c"x1=%.5lf;x2=%.5lf\0A\00", align 1

; Function Attrs: noinline nounwind uwtable
define dso_local i32 @main() #0 {
  %1 = alloca i32, align 4
  %2 = alloca i32, align 4
  %3 = alloca i32, align 4
  %4 = alloca double, align 8
  %5 = alloca double, align 8
  %6 = alloca double, align 8
  %7 = alloca double, align 8
  %8 = alloca double, align 8
  %9 = alloca [100 x double], align 16
  %10 = alloca [100 x double], align 16
  %11 = alloca [100 x double], align 16
  store i32 0, i32* %1, align 4
  %12 = call i32 (i8*, ...) @__isoc99_scanf(i8* getelementptr inbounds ([3 x i8], [3 x i8]* @.str, i64 0, i64 0), i32* %3)
  store i32 0, i32* %2, align 4
  br label %13

13:                                               ; preds = %28, %0
  %14 = load i32, i32* %2, align 4
  %15 = load i32, i32* %3, align 4
  %16 = icmp slt i32 %14, %15
  br i1 %16, label %17, label %31

17:                                               ; preds = %13
  %18 = load i32, i32* %2, align 4
  %19 = sext i32 %18 to i64
  %20 = getelementptr inbounds [100 x double], [100 x double]* %9, i64 0, i64 %19
  %21 = load i32, i32* %2, align 4
  %22 = sext i32 %21 to i64
  %23 = getelementptr inbounds [100 x double], [100 x double]* %10, i64 0, i64 %22
  %24 = load i32, i32* %2, align 4
  %25 = sext i32 %24 to i64
  %26 = getelementptr inbounds [100 x double], [100 x double]* %11, i64 0, i64 %25
  %27 = call i32 (i8*, ...) @__isoc99_scanf(i8* getelementptr inbounds ([12 x i8], [12 x i8]* @.str.1, i64 0, i64 0), double* %20, double* %23, double* %26)
  br label %28

28:                                               ; preds = %17
  %29 = load i32, i32* %2, align 4
  %30 = add nsw i32 %29, 1
  store i32 %30, i32* %2, align 4
  br label %13

31:                                               ; preds = %13
  store i32 0, i32* %2, align 4
  br label %32

32:                                               ; preds = %151, %31
  %33 = load i32, i32* %2, align 4
  %34 = load i32, i32* %3, align 4
  %35 = icmp slt i32 %33, %34
  br i1 %35, label %36, label %154

36:                                               ; preds = %32
  %37 = load i32, i32* %2, align 4
  %38 = sext i32 %37 to i64
  %39 = getelementptr inbounds [100 x double], [100 x double]* %10, i64 0, i64 %38
  %40 = load double, double* %39, align 8
  %41 = load i32, i32* %2, align 4
  %42 = sext i32 %41 to i64
  %43 = getelementptr inbounds [100 x double], [100 x double]* %10, i64 0, i64 %42
  %44 = load double, double* %43, align 8
  %45 = fmul double %40, %44
  %46 = load i32, i32* %2, align 4
  %47 = sext i32 %46 to i64
  %48 = getelementptr inbounds [100 x double], [100 x double]* %9, i64 0, i64 %47
  %49 = load double, double* %48, align 8
  %50 = fmul double 4.000000e+00, %49
  %51 = load i32, i32* %2, align 4
  %52 = sext i32 %51 to i64
  %53 = getelementptr inbounds [100 x double], [100 x double]* %11, i64 0, i64 %52
  %54 = load double, double* %53, align 8
  %55 = fmul double %50, %54
  %56 = fsub double %45, %55
  store double %56, double* %8, align 8
  %57 = load double, double* %8, align 8
  %58 = fcmp olt double %57, 0.000000e+00
  br i1 %58, label %59, label %98

59:                                               ; preds = %36
  %60 = load i32, i32* %2, align 4
  %61 = sext i32 %60 to i64
  %62 = getelementptr inbounds [100 x double], [100 x double]* %10, i64 0, i64 %61
  %63 = load double, double* %62, align 8
  %64 = fneg double %63
  %65 = load i32, i32* %2, align 4
  %66 = sext i32 %65 to i64
  %67 = getelementptr inbounds [100 x double], [100 x double]* %9, i64 0, i64 %66
  %68 = load double, double* %67, align 8
  %69 = fmul double %68, 2.000000e+00
  %70 = fdiv double %64, %69
  store double %70, double* %4, align 8
  %71 = load double, double* %8, align 8
  %72 = fneg double %71
  %73 = call double @sqrt(double %72) #4
  %74 = load i32, i32* %2, align 4
  %75 = sext i32 %74 to i64
  %76 = getelementptr inbounds [100 x double], [100 x double]* %9, i64 0, i64 %75
  %77 = load double, double* %76, align 8
  %78 = fmul double 2.000000e+00, %77
  %79 = fdiv double %73, %78
  store double %79, double* %6, align 8
  %80 = load double, double* %8, align 8
  %81 = fneg double %80
  %82 = call double @sqrt(double %81) #4
  %83 = load i32, i32* %2, align 4
  %84 = sext i32 %83 to i64
  %85 = getelementptr inbounds [100 x double], [100 x double]* %9, i64 0, i64 %84
  %86 = load double, double* %85, align 8
  %87 = fmul double 2.000000e+00, %86
  %88 = fdiv double %82, %87
  store double %88, double* %7, align 8
  %89 = load double, double* %4, align 8
  %90 = fcmp oeq double %89, 0.000000e+00
  br i1 %90, label %91, label %92

91:                                               ; preds = %59
  store double 0.000000e+00, double* %4, align 8
  br label %92

92:                                               ; preds = %91, %59
  %93 = load double, double* %4, align 8
  %94 = load double, double* %6, align 8
  %95 = load double, double* %4, align 8
  %96 = load double, double* %7, align 8
  %97 = call i32 (i8*, ...) @printf(i8* getelementptr inbounds ([33 x i8], [33 x i8]* @.str.2, i64 0, i64 0), double %93, double %94, double %95, double %96)
  br label %150

98:                                               ; preds = %36
  %99 = load double, double* %8, align 8
  %100 = fsub double %99, 0.000000e+00
  %101 = call double @llvm.fabs.f64(double %100)
  %102 = fcmp olt double %101, 1.000000e-08
  br i1 %102, label %103, label %117

103:                                              ; preds = %98
  %104 = load i32, i32* %2, align 4
  %105 = sext i32 %104 to i64
  %106 = getelementptr inbounds [100 x double], [100 x double]* %10, i64 0, i64 %105
  %107 = load double, double* %106, align 8
  %108 = fneg double %107
  %109 = load i32, i32* %2, align 4
  %110 = sext i32 %109 to i64
  %111 = getelementptr inbounds [100 x double], [100 x double]* %9, i64 0, i64 %110
  %112 = load double, double* %111, align 8
  %113 = fmul double 2.000000e+00, %112
  %114 = fdiv double %108, %113
  store double %114, double* %4, align 8
  %115 = load double, double* %4, align 8
  %116 = call i32 (i8*, ...) @printf(i8* getelementptr inbounds ([13 x i8], [13 x i8]* @.str.3, i64 0, i64 0), double %115)
  br label %149

117:                                              ; preds = %98
  %118 = load i32, i32* %2, align 4
  %119 = sext i32 %118 to i64
  %120 = getelementptr inbounds [100 x double], [100 x double]* %10, i64 0, i64 %119
  %121 = load double, double* %120, align 8
  %122 = fneg double %121
  %123 = load double, double* %8, align 8
  %124 = call double @sqrt(double %123) #4
  %125 = fadd double %122, %124
  %126 = load i32, i32* %2, align 4
  %127 = sext i32 %126 to i64
  %128 = getelementptr inbounds [100 x double], [100 x double]* %9, i64 0, i64 %127
  %129 = load double, double* %128, align 8
  %130 = fmul double 2.000000e+00, %129
  %131 = fdiv double %125, %130
  store double %131, double* %4, align 8
  %132 = load i32, i32* %2, align 4
  %133 = sext i32 %132 to i64
  %134 = getelementptr inbounds [100 x double], [100 x double]* %10, i64 0, i64 %133
  %135 = load double, double* %134, align 8
  %136 = fneg double %135
  %137 = load double, double* %8, align 8
  %138 = call double @sqrt(double %137) #4
  %139 = fsub double %136, %138
  %140 = load i32, i32* %2, align 4
  %141 = sext i32 %140 to i64
  %142 = getelementptr inbounds [100 x double], [100 x double]* %9, i64 0, i64 %141
  %143 = load double, double* %142, align 8
  %144 = fmul double 2.000000e+00, %143
  %145 = fdiv double %139, %144
  store double %145, double* %5, align 8
  %146 = load double, double* %4, align 8
  %147 = load double, double* %5, align 8
  %148 = call i32 (i8*, ...) @printf(i8* getelementptr inbounds ([19 x i8], [19 x i8]* @.str.4, i64 0, i64 0), double %146, double %147)
  br label %149

149:                                              ; preds = %117, %103
  br label %150

150:                                              ; preds = %149, %92
  br label %151

151:                                              ; preds = %150
  %152 = load i32, i32* %2, align 4
  %153 = add nsw i32 %152, 1
  store i32 %153, i32* %2, align 4
  br label %32

154:                                              ; preds = %32
  %155 = load i32, i32* %1, align 4
  ret i32 %155
}

declare dso_local i32 @__isoc99_scanf(i8*, ...) #1

; Function Attrs: nounwind
declare dso_local double @sqrt(double) #2

declare dso_local i32 @printf(i8*, ...) #1

; Function Attrs: nounwind readnone speculatable willreturn
declare double @llvm.fabs.f64(double) #3


!llvm.module.flags = !{!0}
!llvm.ident = !{!1}

!0 = !{i32 1, !"wchar_size", i32 4}
!1 = !{!"clang version 10.0.0-4ubuntu1 "}
